	.text
	.file	"fvwrite.bc"
	.globl	$__sfvwrite_r
	.type	$__sfvwrite_r,@function
$__sfvwrite_r:                          //  @__sfvwrite_r
	.cfi_sections .debug_frame
	.cfi_startproc
  .codasip_retval_regs 10
  .cfi_return_column 1
//  BB#0:                               //  %entry
$cfi0:
	.cfi_def_cfa 2, 0
$cfi1:
	.cfi_val_offset 2, 0
	addi x2, x2, -56
$cfi2:
	.cfi_adjust_cfa_offset 56
	sw x1, 52 ( x2 )
$cfi3:
	.cfi_offset 1, -4
	sw x8, 44 ( x2 )                //  4-byte Folded Spill
	add x8, x0, x11
	sw x12, 32 ( x2 )               //  4-byte Folded Spill
	lw x1, 8 ( x12 )
	nop
	bgtu x1, x0, LBB0_2
LBB0_1:
	add x10, x0, x0
	jalr x0, LBB0_75 ( x0 )
LBB0_2:                                 //  %if.end
	sw x10, 28 ( x2 )               //  4-byte Folded Spill
	lhu x1, 12 ( x8 )
	nop
	andi x3, x1, 8
	beqz x3, LBB0_4
LBB0_3:                                 //  %lor.lhs.false
	lw x3, 16 ( x8 )
	nop
	bgtu x3, x0, LBB0_6
LBB0_4:                                 //  %land.lhs.true
	lw x10, 28 ( x2 )               //  4-byte Folded Reload
	add x11, x0, x8
	call $__swsetup_r
	bgtu x10, x0, LBB0_74
LBB0_5:                                 //  %land.lhs.true.if.end6_crit_edge
	lh x1, 12 ( x8 )
	nop
LBB0_6:                                 //  %if.end6
	slli x1, x1, 16
	srai x1, x1, 16
	andi x3, x1, 2
	lw x4, 32 ( x2 )                //  4-byte Folded Reload
	nop
	lw x4, 0 ( x4 )
	nop
	sw x4, 36 ( x2 )                //  4-byte Folded Spill
	sw x8, 40 ( x2 )                //  4-byte Folded Spill
	beqz x3, LBB0_17
LBB0_7:                                 //  %do.body.preheader
	add x1, x0, x0
	add x8, x0, x1
	add x3, x0, x1
LBB0_8:                                 //  %do.body
                                        //  =>This Loop Header: Depth=1
                                        //      Child Loop BB0_10 Depth 2
	bgtu x8, x0, LBB0_12
LBB0_9:                                 //  %while.body.preheader
                                        //    in Loop: Header=BB0_8 Depth=1
	lw x1, 36 ( x2 )                //  4-byte Folded Reload
	nop
LBB0_10:                                //  %while.body
                                        //    Parent Loop BB0_8 Depth=1
                                        //  =>  This Inner Loop Header: Depth=2
	lw x8, 4 ( x1 )
	addi x1, x1, 8
	beqz x8, LBB0_10
LBB0_11:                                //  %while.cond.while.end_crit_edge
                                        //    in Loop: Header=BB0_8 Depth=1
	sw x1, 36 ( x2 )                //  4-byte Folded Spill
	lw x3, -8 ( x1 )
LBB0_12:                                //  %while.end
                                        //    in Loop: Header=BB0_8 Depth=1
	lw x10, 28 ( x2 )               //  4-byte Folded Reload
	ori x28, x0, 2147482624 & 0xfff
	slli x28, x28, 20
	srli x28, x28, 20
	lui x1, 2147482624 >> 12 & 0xfffff
	or x1, x1, x28
	add x13, x0, x8
	bgtu x1, x8, LBB0_14
LBB0_13:                                //  %while.end
                                        //    in Loop: Header=BB0_8 Depth=1
	add x13, x0, x1
LBB0_14:                                //  %while.end
                                        //    in Loop: Header=BB0_8 Depth=1
	lw x1, 40 ( x2 )                //  4-byte Folded Reload
	nop
	lw x11, 28 ( x1 )
	lw x1, 36 ( x1 )
	add x12, x0, x3
	sw x12, 24 ( x2 )               //  4-byte Folded Spill
	call_reg x1
	ble x10, x0, LBB0_73
LBB0_15:                                //  %if.end20
                                        //    in Loop: Header=BB0_8 Depth=1
	lw x3, 32 ( x2 )                //  4-byte Folded Reload
	nop
	lw x1, 8 ( x3 )
	sub x8, x8, x10
	lw x4, 24 ( x2 )                //  4-byte Folded Reload
	nop
	add x4, x10, x4
	sub x1, x1, x10
	sw x1, 8 ( x3 )
	add x3, x0, x4
	bgtu x1, x0, LBB0_8
LBB0_16:
	add x10, x0, x0
	jalr x0, LBB0_75 ( x0 )
LBB0_17:                                //  %if.else
	andi x1, x1, 1
	beqz x1, LBB0_23
LBB0_18:                                //  %do.body179.preheader
	add x5, x0, x0
	add x7, x0, x5
	sw x5, 12 ( x2 )                //  4-byte Folded Spill
	add x4, x0, x5
LBB0_19:                                //  %do.body179
                                        //  =>This Loop Header: Depth=1
                                        //      Child Loop BB0_21 Depth 2
	bgtu x4, x0, LBB0_55
LBB0_20:                                //  %while.body183.preheader
                                        //    in Loop: Header=BB0_19 Depth=1
	lw x3, 36 ( x2 )                //  4-byte Folded Reload
	nop
LBB0_21:                                //  %while.body183
                                        //    Parent Loop BB0_19 Depth=1
                                        //  =>  This Inner Loop Header: Depth=2
	lw x4, 4 ( x3 )
	addi x3, x3, 8
	beqz x4, LBB0_21
LBB0_22:                                //  %while.end187.thread
                                        //    in Loop: Header=BB0_19 Depth=1
	lw x5, -8 ( x3 )
	jalr x0, LBB0_56 ( x0 )
LBB0_23:                                //  %do.body31.preheader
	add x3, x0, x8
	add x7, x0, x0
	add x5, x0, x7
LBB0_24:                                //  %do.body31
                                        //  =>This Loop Header: Depth=1
                                        //      Child Loop BB0_26 Depth 2
	bgtu x5, x0, LBB0_28
LBB0_25:                                //  %while.body35.preheader
                                        //    in Loop: Header=BB0_24 Depth=1
	lw x1, 36 ( x2 )                //  4-byte Folded Reload
	nop
LBB0_26:                                //  %while.body35
                                        //    Parent Loop BB0_24 Depth=1
                                        //  =>  This Inner Loop Header: Depth=2
	lw x5, 4 ( x1 )
	addi x1, x1, 8
	beqz x5, LBB0_26
LBB0_27:                                //  %while.cond32.while.end39_crit_edge
                                        //    in Loop: Header=BB0_24 Depth=1
	sw x1, 36 ( x2 )                //  4-byte Folded Spill
	lw x7, -8 ( x1 )
LBB0_28:                                //  %while.end39
                                        //    in Loop: Header=BB0_24 Depth=1
	add x4, x0, x3
	lh x8, 12 ( x4 )
	lw x1, 8 ( x4 )
	andi x3, x8, 512
	sw x5, 24 ( x2 )                //  4-byte Folded Spill
	beqz x3, LBB0_44
LBB0_29:                                //  %if.then44
                                        //    in Loop: Header=BB0_24 Depth=1
	bgtu x1, x5, LBB0_31
LBB0_30:                                //  %if.then44
                                        //    in Loop: Header=BB0_24 Depth=1
	andi x3, x8, 1152
	bgtu x3, x0, LBB0_32
LBB0_31:                                //  %if.then44.if.end105_crit_edge
                                        //    in Loop: Header=BB0_24 Depth=1
	lw x8, 40 ( x2 )                //  4-byte Folded Reload
	nop
	lw x10, 0 ( x8 )
	jalr x0, LBB0_41 ( x0 )
LBB0_32:                                //  %if.then52
                                        //    in Loop: Header=BB0_24 Depth=1
	sw x7, 20 ( x2 )                //  4-byte Folded Spill
	lw x1, 40 ( x2 )                //  4-byte Folded Reload
	nop
	lw x10, 20 ( x1 )
	addi x11, x0, 3
	call $__mulsi3
	lw x1, 40 ( x2 )                //  4-byte Folded Reload
	nop
	lw x11, 16 ( x1 )
	lw x3, 0 ( x1 )
	slt x1, x10, x0
	add x1, x1, x10
	srai x1, x1, 1
	sub x4, x3, x11
	lw x3, 24 ( x2 )                //  4-byte Folded Reload
	nop
	add x3, x4, x3
	addi x3, x3, 1
	bgtu x3, x1, LBB0_34
LBB0_33:                                //  %if.then52
                                        //    in Loop: Header=BB0_24 Depth=1
	add x3, x0, x1
LBB0_34:                                //  %if.then52
                                        //    in Loop: Header=BB0_24 Depth=1
	sw x4, 16 ( x2 )                //  4-byte Folded Spill
	andi x1, x8, 1024
	lw x10, 28 ( x2 )               //  4-byte Folded Reload
	beqz x1, LBB0_37
LBB0_35:                                //  %if.then67
                                        //    in Loop: Header=BB0_24 Depth=1
	sw x3, 12 ( x2 )                //  4-byte Folded Spill
	add x11, x0, x3
	call $_malloc_r
	lw x8, 40 ( x2 )                //  4-byte Folded Reload
	bgtu x10, x0, LBB0_39
LBB0_36:                                //  %if.then70
	addi x1, x0, 12
	lw x3, 28 ( x2 )                //  4-byte Folded Reload
	nop
	sw x1, 0 ( x3 )
	jalr x0, LBB0_73 ( x0 )
LBB0_37:                                //  %if.else80
                                        //    in Loop: Header=BB0_24 Depth=1
	add x8, x0, x3
	add x12, x0, x8
	call $_realloc_r
	add x5, x0, x8
	add x3, x0, x10
	lw x8, 40 ( x2 )                //  4-byte Folded Reload
	lw x4, 16 ( x2 )                //  4-byte Folded Reload
	bgtu x3, x0, LBB0_40
LBB0_38:                                //  %if.then85
	lw x11, 16 ( x8 )
	lw x10, 28 ( x2 )               //  4-byte Folded Reload
	nop
	call $_free_r
	ori x28, x0, 65407 & 0xfff
	lhu x1, 12 ( x8 )
	slli x28, x28, 20
	lui x3, 65407 >> 12 & 0xfffff
	srli x28, x28, 20
	or x3, x3, x28
	and x1, x3, x1
	addi x3, x0, 12
	sh x1, 12 ( x8 )
	lw x1, 28 ( x2 )                //  4-byte Folded Reload
	nop
	sw x3, 0 ( x1 )
	jalr x0, LBB0_73 ( x0 )
LBB0_39:                                //  %if.end71
                                        //    in Loop: Header=BB0_24 Depth=1
	lw x11, 16 ( x8 )
	lw x12, 16 ( x2 )               //  4-byte Folded Reload
	sw x10, 8 ( x2 )                //  4-byte Folded Spill
	call $memcpy
	lw x4, 16 ( x2 )                //  4-byte Folded Reload
	ori x28, x0, 64383 & 0xfff
	lhu x1, 12 ( x8 )
	slli x28, x28, 20
	srli x28, x28, 20
	lui x3, 64383 >> 12 & 0xfffff
	or x3, x3, x28
	and x1, x3, x1
	lw x3, 8 ( x2 )                 //  4-byte Folded Reload
	ori x1, x1, 128
	sh x1, 12 ( x8 )
	lw x5, 12 ( x2 )                //  4-byte Folded Reload
LBB0_40:                                //  %cleanup
                                        //    in Loop: Header=BB0_24 Depth=1
	add x10, x4, x3
	sub x1, x5, x4
	sw x3, 16 ( x8 )
	sw x10, 0 ( x8 )
	sw x5, 20 ( x8 )
	sw x1, 8 ( x8 )
	lw x5, 24 ( x2 )                //  4-byte Folded Reload
	nop
	add x1, x0, x5
	lw x7, 20 ( x2 )                //  4-byte Folded Reload
LBB0_41:                                //  %if.end105
                                        //    in Loop: Header=BB0_24 Depth=1
	add x3, x0, x5
	bgtu x1, x5, LBB0_43
LBB0_42:                                //  %if.end105
                                        //    in Loop: Header=BB0_24 Depth=1
	add x3, x0, x1
LBB0_43:                                //  %if.end105
                                        //    in Loop: Header=BB0_24 Depth=1
	add x11, x0, x7
	add x12, x0, x3
	sw x12, 16 ( x2 )               //  4-byte Folded Spill
	add x8, x0, x7
	call $memmove
	lw x3, 40 ( x2 )                //  4-byte Folded Reload
	nop
	lw x1, 8 ( x3 )
	lw x4, 16 ( x2 )                //  4-byte Folded Reload
	nop
	sub x1, x1, x4
	sw x1, 8 ( x3 )
	lw x1, 0 ( x3 )
	nop
	add x1, x4, x1
	sw x1, 0 ( x3 )
	lw x5, 24 ( x2 )                //  4-byte Folded Reload
	nop
	add x4, x0, x5
	jalr x0, LBB0_53 ( x0 )
LBB0_44:                                //  %if.else116
                                        //    in Loop: Header=BB0_24 Depth=1
	lw x10, 0 ( x4 )
	lw x3, 16 ( x4 )
	add x8, x0, x4
	sw x7, 20 ( x2 )                //  4-byte Folded Spill
	bgtu x10, x3, LBB0_46
LBB0_45:                                //  %lor.lhs.false122
                                        //    in Loop: Header=BB0_24 Depth=1
	lw x11, 20 ( x8 )
	nop
	bgeu x5, x11, LBB0_50
LBB0_46:                                //  %if.then127
                                        //    in Loop: Header=BB0_24 Depth=1
	add x12, x0, x5
	bgtu x1, x5, LBB0_48
LBB0_47:                                //  %if.then127
                                        //    in Loop: Header=BB0_24 Depth=1
	add x12, x0, x1
LBB0_48:                                //  %if.then127
                                        //    in Loop: Header=BB0_24 Depth=1
	sw x12, 16 ( x2 )               //  4-byte Folded Spill
	add x11, x0, x7
	call $memmove
	lw x4, 16 ( x2 )                //  4-byte Folded Reload
	lw x1, 8 ( x8 )
	nop
	sub x1, x1, x4
	sw x1, 8 ( x8 )
	lw x3, 0 ( x8 )
	nop
	add x3, x4, x3
	sw x3, 0 ( x8 )
	beqz x1, LBB0_72
LBB0_49:                                //    in Loop: Header=BB0_24 Depth=1
	lw x5, 24 ( x2 )                //  4-byte Folded Reload
	lw x8, 20 ( x2 )                //  4-byte Folded Reload
	jalr x0, LBB0_53 ( x0 )
LBB0_50:                                //  %if.else148
                                        //    in Loop: Header=BB0_24 Depth=1
	ori x28, x0, 2147483647 & 0xfff
	slli x28, x28, 20
	srli x28, x28, 20
	lui x1, 2147483647 >> 12 & 0xfffff
	or x1, x1, x28
	add x3, x0, x5
	bgtu x1, x5, LBB0_52
LBB0_51:                                //  %if.else148
                                        //    in Loop: Header=BB0_24 Depth=1
	add x3, x0, x1
LBB0_52:                                //  %if.else148
                                        //    in Loop: Header=BB0_24 Depth=1
	add x10, x0, x3
	sw x10, 16 ( x2 )               //  4-byte Folded Spill
	call $__modsi3
	lw x1, 16 ( x2 )                //  4-byte Folded Reload
	nop
	sub x13, x1, x10
	lw x11, 28 ( x8 )
	lw x1, 36 ( x8 )
	lw x10, 28 ( x2 )               //  4-byte Folded Reload
	lw x8, 20 ( x2 )                //  4-byte Folded Reload
	nop
	add x12, x0, x8
	call_reg x1
	add x4, x0, x10
	lw x5, 24 ( x2 )                //  4-byte Folded Reload
	ble x4, x0, LBB0_73
LBB0_53:                                //  %if.end169
                                        //    in Loop: Header=BB0_24 Depth=1
	lw x3, 32 ( x2 )                //  4-byte Folded Reload
	nop
	lw x1, 8 ( x3 )
	sub x5, x5, x4
	add x8, x4, x8
	sub x1, x1, x4
	sw x1, 8 ( x3 )
	lw x3, 40 ( x2 )                //  4-byte Folded Reload
	add x7, x0, x8
	bgtu x1, x0, LBB0_24
LBB0_54:
	add x10, x0, x0
	jalr x0, LBB0_75 ( x0 )
LBB0_55:                                //  %while.end187
                                        //    in Loop: Header=BB0_19 Depth=1
	lw x3, 36 ( x2 )                //  4-byte Folded Reload
	lw x1, 12 ( x2 )                //  4-byte Folded Reload
	nop
	bgtu x1, x0, LBB0_60
LBB0_56:                                //  %if.then189
                                        //    in Loop: Header=BB0_19 Depth=1
	sw x5, 20 ( x2 )                //  4-byte Folded Spill
	sw x3, 36 ( x2 )                //  4-byte Folded Spill
	add x10, x0, x5
	addi x11, x0, 10
	add x12, x0, x4
	sw x12, 24 ( x2 )               //  4-byte Folded Spill
	call $memchr
	add x1, x0, x0
	bne x10, x1, LBB0_58
LBB0_57:                                //    in Loop: Header=BB0_19 Depth=1
	lw x1, 24 ( x2 )                //  4-byte Folded Reload
	nop
	addi x7, x1, 1
	lw x3, 36 ( x2 )                //  4-byte Folded Reload
	add x4, x0, x1
	lw x5, 20 ( x2 )                //  4-byte Folded Reload
	jalr x0, LBB0_59 ( x0 )
LBB0_58:                                //  %if.then189
                                        //    in Loop: Header=BB0_19 Depth=1
	addi x1, x10, 1
	lw x5, 20 ( x2 )                //  4-byte Folded Reload
	nop
	sub x7, x1, x5
	lw x3, 36 ( x2 )                //  4-byte Folded Reload
	lw x4, 24 ( x2 )                //  4-byte Folded Reload
LBB0_59:                                //  %if.then189
                                        //    in Loop: Header=BB0_19 Depth=1
	slti x1, x0, 1
	sw x1, 12 ( x2 )                //  4-byte Folded Spill
LBB0_60:                                //  %if.end201
                                        //    in Loop: Header=BB0_19 Depth=1
	add x9, x0, x4
	bgtu x7, x4, LBB0_62
LBB0_61:                                //  %if.end201
                                        //    in Loop: Header=BB0_19 Depth=1
	add x9, x0, x7
LBB0_62:                                //  %if.end201
                                        //    in Loop: Header=BB0_19 Depth=1
	lw x10, 0 ( x8 )
	lw x1, 8 ( x8 )
	lw x13, 20 ( x8 )
	nop
	add x12, x1, x13
	sw x3, 36 ( x2 )                //  4-byte Folded Spill
	sw x4, 24 ( x2 )                //  4-byte Folded Spill
	sw x5, 20 ( x2 )                //  4-byte Folded Spill
	ble x9, x12, LBB0_65
LBB0_63:                                //  %if.end201
                                        //    in Loop: Header=BB0_19 Depth=1
	lw x1, 16 ( x8 )
	nop
	bgeu x1, x10, LBB0_65
LBB0_64:                                //  %if.then220
                                        //    in Loop: Header=BB0_19 Depth=1
	add x11, x0, x5
	sw x7, 16 ( x2 )                //  4-byte Folded Spill
	sw x12, 8 ( x2 )                //  4-byte Folded Spill
	call $memmove
	lw x1, 0 ( x8 )
	lw x3, 8 ( x2 )                 //  4-byte Folded Reload
	nop
	add x1, x3, x1
	sw x1, 0 ( x8 )
	lw x10, 28 ( x2 )               //  4-byte Folded Reload
	add x11, x0, x8
	call $_fflush_r
	lw x8, 8 ( x2 )                 //  4-byte Folded Reload
	lw x7, 16 ( x2 )                //  4-byte Folded Reload
	beqz x10, LBB0_68
	jalr x0, LBB0_73 ( x0 )
LBB0_65:                                //  %if.else229
                                        //    in Loop: Header=BB0_19 Depth=1
	bgt x13, x9, LBB0_67
LBB0_66:                                //  %if.then234
                                        //    in Loop: Header=BB0_19 Depth=1
	lw x11, 28 ( x8 )
	lw x1, 36 ( x8 )
	lw x10, 28 ( x2 )               //  4-byte Folded Reload
	add x12, x0, x5
	add x8, x0, x7
	call_reg x1
	add x7, x0, x8
	add x8, x0, x10
	bgt x8, x0, LBB0_68
	jalr x0, LBB0_73 ( x0 )
LBB0_67:                                //  %if.else242
                                        //    in Loop: Header=BB0_19 Depth=1
	add x11, x0, x5
	add x12, x0, x9
	sw x7, 16 ( x2 )                //  4-byte Folded Spill
	sw x9, 8 ( x2 )                 //  4-byte Folded Spill
	call $memmove
	lw x7, 16 ( x2 )                //  4-byte Folded Reload
	lw x1, 8 ( x8 )
	lw x9, 8 ( x2 )                 //  4-byte Folded Reload
	nop
	sub x1, x1, x9
	sw x1, 8 ( x8 )
	lw x1, 0 ( x8 )
	nop
	add x1, x9, x1
	sw x1, 0 ( x8 )
	add x8, x0, x9
LBB0_68:                                //  %if.end250
                                        //    in Loop: Header=BB0_19 Depth=1
	sub x7, x7, x8
	bgtu x7, x0, LBB0_70
LBB0_69:                                //  %if.then254
                                        //    in Loop: Header=BB0_19 Depth=1
	lw x10, 28 ( x2 )               //  4-byte Folded Reload
	lw x11, 40 ( x2 )               //  4-byte Folded Reload
	sw x7, 16 ( x2 )                //  4-byte Folded Spill
	call $_fflush_r
	lw x7, 16 ( x2 )                //  4-byte Folded Reload
	add x1, x0, x0
	sw x1, 12 ( x2 )                //  4-byte Folded Spill
	bgtu x10, x0, LBB0_73
LBB0_70:                                //  %if.end259
                                        //    in Loop: Header=BB0_19 Depth=1
	lw x3, 32 ( x2 )                //  4-byte Folded Reload
	nop
	lw x1, 8 ( x3 )
	lw x4, 24 ( x2 )                //  4-byte Folded Reload
	nop
	sub x4, x4, x8
	lw x5, 20 ( x2 )                //  4-byte Folded Reload
	nop
	add x5, x8, x5
	sub x1, x1, x8
	sw x1, 8 ( x3 )
	lw x8, 40 ( x2 )                //  4-byte Folded Reload
	bgtu x1, x0, LBB0_19
LBB0_71:
	add x10, x0, x0
	jalr x0, LBB0_75 ( x0 )
LBB0_72:                                //  %land.lhs.true143
                                        //    in Loop: Header=BB0_24 Depth=1
	lw x10, 28 ( x2 )               //  4-byte Folded Reload
	add x11, x0, x8
	call $_fflush_r
	lw x4, 16 ( x2 )                //  4-byte Folded Reload
	lw x5, 24 ( x2 )                //  4-byte Folded Reload
	lw x8, 20 ( x2 )                //  4-byte Folded Reload
	beqz x10, LBB0_53
LBB0_73:                                //  %err
	lw x3, 40 ( x2 )                //  4-byte Folded Reload
	nop
	lh x1, 12 ( x3 )
	nop
	ori x1, x1, 64
	sh x1, 12 ( x3 )
LBB0_74:                                //  %cleanup274
	not x10, x0
LBB0_75:                                //  %cleanup274
	lw x8, 44 ( x2 )                //  4-byte Folded Reload
	lw x1, 52 ( x2 )
$cfi4:
	.cfi_same_value 1
	addi x2, x2, 56
$cfi5:
	.cfi_adjust_cfa_offset -56
$cfi6:
	.cfi_def_cfa 2, 0
	ret
$func_end0:
	.size	$__sfvwrite_r, ($func_end0)-($__sfvwrite_r)
	.cfi_endproc


  .address_space 0
  .section .codasip_regmap, "g"
  .short 32
  .short 0
  .asciz "rf_xpr"
  .short 0
  .short 1
  .asciz "rf_xpr"
  .short 1
  .short 2
  .asciz "rf_xpr"
  .short 2
  .short 3
  .asciz "rf_xpr"
  .short 3
  .short 4
  .asciz "rf_xpr"
  .short 4
  .short 5
  .asciz "rf_xpr"
  .short 5
  .short 6
  .asciz "rf_xpr"
  .short 6
  .short 7
  .asciz "rf_xpr"
  .short 7
  .short 8
  .asciz "rf_xpr"
  .short 8
  .short 9
  .asciz "rf_xpr"
  .short 9
  .short 10
  .asciz "rf_xpr"
  .short 10
  .short 11
  .asciz "rf_xpr"
  .short 11
  .short 12
  .asciz "rf_xpr"
  .short 12
  .short 13
  .asciz "rf_xpr"
  .short 13
  .short 14
  .asciz "rf_xpr"
  .short 14
  .short 15
  .asciz "rf_xpr"
  .short 15
  .short 16
  .asciz "rf_xpr"
  .short 16
  .short 17
  .asciz "rf_xpr"
  .short 17
  .short 18
  .asciz "rf_xpr"
  .short 18
  .short 19
  .asciz "rf_xpr"
  .short 19
  .short 20
  .asciz "rf_xpr"
  .short 20
  .short 21
  .asciz "rf_xpr"
  .short 21
  .short 22
  .asciz "rf_xpr"
  .short 22
  .short 23
  .asciz "rf_xpr"
  .short 23
  .short 24
  .asciz "rf_xpr"
  .short 24
  .short 25
  .asciz "rf_xpr"
  .short 25
  .short 26
  .asciz "rf_xpr"
  .short 26
  .short 27
  .asciz "rf_xpr"
  .short 27
  .short 28
  .asciz "rf_xpr"
  .short 28
  .short 29
  .asciz "rf_xpr"
  .short 29
  .short 30
  .asciz "rf_xpr"
  .short 30
  .short 31
  .asciz "rf_xpr"
  .short 31
  .short 2
  .ident "      6.8.2-1.win.7.EVALUATION\n      Licensee: C51_657_727\n      Project: RISC_V5.ia\n      Date: 2017-11-25 23:37:30\n      Copyright (C) 2017 Codasip Ltd."
